; Function Attrs: mustprogress nofree norecurse nosync nounwind willreturn memory(read, inaccessiblemem: none) uwtable
define dso_local noundef zeroext i1 @_ZNK4llvm12X86InstrInfo23shouldScheduleLoadsNearEPNS_6SDNodeES2_llj(ptr noundef nonnull readonly align 8 captures(none) dereferenceable(416) %0, ptr noundef readonly captures(none) %1, ptr noundef readonly captures(none) %2, i64 noundef %3, i64 noundef %4, i32 noundef %5) unnamed_addr #8 align 2 {
  %7 = sub nsw i64 %4, %3
  %8 = icmp sgt i64 %7, 519
  br i1 %8, label %30, label %9

9:                                                ; preds = %6
  %10 = getelementptr inbounds nuw i8, ptr %1, i64 24
  %11 = load i32, ptr %10, align 8
  %12 = getelementptr inbounds nuw i8, ptr %2, i64 24
  %13 = load i32, ptr %12, align 8
  %.not = icmp eq i32 %11, %13
  br i1 %.not, label %14, label %30

14:                                               ; preds = %9
  %15 = xor i32 %11, -1
  switch i32 %15, label %16 [
    i32 2086, label %30
    i32 2089, label %30
    i32 2091, label %30
    i32 2323, label %30
    i32 2333, label %30
  ]

16:                                               ; preds = %14
  %17 = getelementptr inbounds nuw i8, ptr %1, i64 48
  %18 = load ptr, ptr %17, align 8
  %.sroa.0.0.copyload.i = load i16, ptr %18, align 8
  switch i16 %.sroa.0.0.copyload.i, label %19 [
    i16 5, label %28
    i16 6, label %28
    i16 7, label %28
    i16 8, label %28
    i16 12, label %28
    i16 13, label %28
  ]

19:                                               ; preds = %16
  %20 = getelementptr inbounds nuw i8, ptr %0, i64 80
  %21 = load ptr, ptr %20, align 8
  %22 = getelementptr inbounds nuw i8, ptr %21, i64 455
  %23 = load i8, ptr %22, align 1
  %24 = trunc i8 %23 to i1
  br i1 %24, label %25, label %27

25:                                               ; preds = %19
  %26 = icmp ugt i32 %5, 2
  br i1 %26, label %30, label %29

27:                                               ; preds = %19
  %.not14 = icmp eq i32 %5, 0
  br i1 %.not14, label %29, label %30

28:                                               ; preds = %16, %16, %16, %16, %16, %16
  %.not13 = icmp eq i32 %5, 0
  br i1 %.not13, label %29, label %30

29:                                               ; preds = %28, %25, %27
  br label %30

30:                                               ; preds = %28, %27, %25, %14, %14, %14, %14, %14, %9, %6, %29
  %.0 = phi i1 [ true, %29 ], [ false, %6 ], [ false, %9 ], [ false, %14 ], [ false, %14 ], [ false, %14 ], [ false, %14 ], [ false, %14 ], [ false, %25 ], [ false, %27 ], [ false, %28 ]
  ret i1 %.0
}